target datalayout = "e-m:e-p270:32:32-p271:32:32-p272:64:64-i64:64-i128:128-f80:128-n8:16:32:64-S128"
target triple = "x86_64-pc-linux-gnu"

%struct.geod_geodesicline = type { double, double, double, double, double, double, double, double, double, double, double, double, double, double, double, double, double, double, double, double, double, double, double, double, double, double, double, double, double, double, [7 x double], [7 x double], [7 x double], [6 x double], [6 x double], i32 }

@NaN = internal global double 0.000000e+00, align 8

; Function Attrs: nounwind uwtable
define dso_local void @geod_setdistance(ptr noundef %0, double noundef %1) #0 {
  %3 = alloca ptr, align 8
  %4 = alloca double, align 8
  store ptr %0, ptr %3, align 8, !tbaa !23
  store double %1, ptr %4, align 8, !tbaa !9
  %5 = load double, ptr %4, align 8, !tbaa !9
  %6 = load ptr, ptr %3, align 8, !tbaa !23
  %7 = getelementptr inbounds nuw %struct.geod_geodesicline, ptr %6, i32 0, i32 8
  store double %5, ptr %7, align 8, !tbaa !57
  %8 = load ptr, ptr %3, align 8, !tbaa !23
  %9 = load ptr, ptr %3, align 8, !tbaa !23
  %10 = getelementptr inbounds nuw %struct.geod_geodesicline, ptr %9, i32 0, i32 8
  %11 = load double, ptr %10, align 8, !tbaa !57
  %12 = call double @geod_genposition(ptr noundef %8, i32 noundef 0, double noundef %11, ptr noundef null, ptr noundef null, ptr noundef null, ptr noundef null, ptr noundef null, ptr noundef null, ptr noundef null, ptr noundef null)
  %13 = load ptr, ptr %3, align 8, !tbaa !23
  %14 = getelementptr inbounds nuw %struct.geod_geodesicline, ptr %13, i32 0, i32 7
  store double %12, ptr %14, align 8, !tbaa !58
  ret void
}

; Function Attrs: nounwind uwtable
define internal void @geod_setarc(ptr noundef %0, double noundef %1) #0 {
  %3 = alloca ptr, align 8
  %4 = alloca double, align 8
  store ptr %0, ptr %3, align 8, !tbaa !23
  store double %1, ptr %4, align 8, !tbaa !9
  %5 = load double, ptr %4, align 8, !tbaa !9
  %6 = load ptr, ptr %3, align 8, !tbaa !23
  %7 = getelementptr inbounds nuw %struct.geod_geodesicline, ptr %6, i32 0, i32 7
  store double %5, ptr %7, align 8, !tbaa !58
  %8 = load double, ptr @NaN, align 8, !tbaa !9
  %9 = load ptr, ptr %3, align 8, !tbaa !23
  %10 = getelementptr inbounds nuw %struct.geod_geodesicline, ptr %9, i32 0, i32 8
  store double %8, ptr %10, align 8, !tbaa !57
  %11 = load ptr, ptr %3, align 8, !tbaa !23
  %12 = load ptr, ptr %3, align 8, !tbaa !23
  %13 = getelementptr inbounds nuw %struct.geod_geodesicline, ptr %12, i32 0, i32 7
  %14 = load double, ptr %13, align 8, !tbaa !58
  %15 = load ptr, ptr %3, align 8, !tbaa !23
  %16 = getelementptr inbounds nuw %struct.geod_geodesicline, ptr %15, i32 0, i32 8
  %17 = call double @geod_genposition(ptr noundef %11, i32 noundef 1, double noundef %14, ptr noundef null, ptr noundef null, ptr noundef null, ptr noundef %16, ptr noundef null, ptr noundef null, ptr noundef null, ptr noundef null)
  ret void
}

; Function Attrs: nounwind uwtable
define dso_local void @geod_gensetdistance(ptr noundef %0, i32 noundef %1, double noundef %2) #0 {
  %4 = alloca ptr, align 8
  %5 = alloca i32, align 4
  %6 = alloca double, align 8
  store ptr %0, ptr %4, align 8, !tbaa !23
  store i32 %1, ptr %5, align 4, !tbaa !11
  store double %2, ptr %6, align 8, !tbaa !9
  %7 = load i32, ptr %5, align 4, !tbaa !11
  %8 = and i32 %7, 1
  %9 = icmp ne i32 %8, 0
  br i1 %9, label %10, label %13

10:                                               ; preds = %3
  %11 = load ptr, ptr %4, align 8, !tbaa !23
  %12 = load double, ptr %6, align 8, !tbaa !9
  call void @geod_setarc(ptr noundef %11, double noundef %12)
  br label %16

13:                                               ; preds = %3
  %14 = load ptr, ptr %4, align 8, !tbaa !23
  %15 = load double, ptr %6, align 8, !tbaa !9
  call void @geod_setdistance(ptr noundef %14, double noundef %15)
  br label %16

16:                                               ; preds = %13, %10
  ret void
}

; Function Attrs: nounwind uwtable
define dso_local void @geod_gendirectline(ptr noundef %0, ptr noundef %1, double noundef %2, double noundef %3, double noundef %4, i32 noundef %5, double noundef %6, i32 noundef %7) #0 {
  %9 = alloca ptr, align 8
  %10 = alloca ptr, align 8
  %11 = alloca double, align 8
  %12 = alloca double, align 8
  %13 = alloca double, align 8
  %14 = alloca i32, align 4
  %15 = alloca double, align 8
  %16 = alloca i32, align 4
  store ptr %0, ptr %9, align 8, !tbaa !23
  store ptr %1, ptr %10, align 8, !tbaa !4
  store double %2, ptr %11, align 8, !tbaa !9
  store double %3, ptr %12, align 8, !tbaa !9
  store double %4, ptr %13, align 8, !tbaa !9
  store i32 %5, ptr %14, align 4, !tbaa !11
  store double %6, ptr %15, align 8, !tbaa !9
  store i32 %7, ptr %16, align 4, !tbaa !11
  %17 = load ptr, ptr %9, align 8, !tbaa !23
  %18 = load ptr, ptr %10, align 8, !tbaa !4
  %19 = load double, ptr %11, align 8, !tbaa !9
  %20 = load double, ptr %12, align 8, !tbaa !9
  %21 = load double, ptr %13, align 8, !tbaa !9
  %22 = load i32, ptr %16, align 4, !tbaa !11
  call void @geod_lineinit(ptr noundef %17, ptr noundef %18, double noundef %19, double noundef %20, double noundef %21, i32 noundef %22)
  %23 = load ptr, ptr %9, align 8, !tbaa !23
  %24 = load i32, ptr %14, align 4, !tbaa !11
  %25 = load double, ptr %15, align 8, !tbaa !9
  call void @geod_gensetdistance(ptr noundef %23, i32 noundef %24, double noundef %25)
  ret void
}